; Function Attrs: mustprogress nounwind uwtable
define internal noundef zeroext i1 @_ZNK12_GLOBAL__N_125AAExecutionDomainFunction11isNoOpFenceERKN4llvm9FenceInstE(ptr noundef nonnull align 8 dereferenceable(536) %0, ptr noundef nonnull align 8 dereferenceable(73) %1) unnamed_addr #0 align 2 {
  %3 = load ptr, ptr %0, align 8
  %4 = getelementptr inbounds i8, ptr %3, i64 48
  %5 = load ptr, ptr %4, align 8
  %6 = tail call noundef nonnull align 8 dereferenceable(10) ptr %5(ptr noundef nonnull align 8 dereferenceable(90) %0) #26
  %7 = load ptr, ptr %6, align 8
  %8 = getelementptr inbounds i8, ptr %7, i64 16
  %9 = load ptr, ptr %8, align 8
  %10 = tail call noundef zeroext i1 %9(ptr noundef nonnull align 8 dereferenceable(10) %6) #26
  br i1 %10, label %11, label %43

11:                                               ; preds = %2
  %12 = getelementptr inbounds nuw i8, ptr %0, i64 440
  %13 = getelementptr inbounds i8, ptr %0, i64 448
  %14 = load ptr, ptr %13, align 8
  %15 = load ptr, ptr %12, align 8
  %16 = icmp eq ptr %14, %15
  br i1 %16, label %17, label %27

17:                                               ; preds = %11
  %18 = getelementptr inbounds i8, ptr %0, i64 460
  %19 = load i32, ptr %18, align 4
  %20 = zext i32 %19 to i64
  %21 = getelementptr inbounds ptr, ptr %15, i64 %20
  %.not1317.i.i = icmp eq i32 %19, 0
  br i1 %.not1317.i.i, label %._crit_edge.i.i, label %.lr.ph.i.i

.lr.ph.i.i:                                       ; preds = %17, %24
  %.01118.i.i = phi ptr [ %25, %24 ], [ %15, %17 ]
  %22 = load ptr, ptr %.01118.i.i, align 8
  %23 = icmp eq ptr %22, %1
  br i1 %23, label %_ZNK4llvm15SmallPtrSetImplIPKNS_9FenceInstEE5countES3_.exit, label %24

24:                                               ; preds = %.lr.ph.i.i
  %25 = getelementptr inbounds i8, ptr %.01118.i.i, i64 8
  %.not13.i.i = icmp eq ptr %25, %21
  br i1 %.not13.i.i, label %._crit_edge.i.i, label %.lr.ph.i.i, !llvm.loop !95

._crit_edge.i.i:                                  ; preds = %24, %17
  %26 = getelementptr inbounds ptr, ptr %14, i64 %20
  br label %_ZNK4llvm15SmallPtrSetImplIPKNS_9FenceInstEE5countES3_.exit

27:                                               ; preds = %11
  %28 = tail call noundef ptr @_ZNK4llvm19SmallPtrSetImplBase6doFindEPKv(ptr noundef nonnull align 8 dereferenceable(28) %12, ptr noundef nonnull %1) #26
  %.not.i.i = icmp eq ptr %28, null
  %.pre.i = load ptr, ptr %13, align 8
  %.pre4.i = load ptr, ptr %12, align 8
  br i1 %.not.i.i, label %29, label %._ZNK4llvm19SmallPtrSetImplBase8find_impEPKv.exit_crit_edge.i

._ZNK4llvm19SmallPtrSetImplBase8find_impEPKv.exit_crit_edge.i: ; preds = %27
  %.phi.trans.insert.i = getelementptr inbounds i8, ptr %0, i64 460
  %.pre5.i = load i32, ptr %.phi.trans.insert.i, align 4
  br label %_ZNK4llvm15SmallPtrSetImplIPKNS_9FenceInstEE5countES3_.exit

29:                                               ; preds = %27
  %30 = icmp eq ptr %.pre.i, %.pre4.i
  %31 = getelementptr inbounds i8, ptr %0, i64 460
  %32 = load i32, ptr %31, align 4
  %33 = getelementptr inbounds i8, ptr %0, i64 456
  %34 = load i32, ptr %33, align 8
  %.v.v.i14.i.i = select i1 %30, i32 %32, i32 %34
  %.v.i15.i.i = zext i32 %.v.v.i14.i.i to i64
  %35 = getelementptr inbounds ptr, ptr %.pre.i, i64 %.v.i15.i.i
  br label %_ZNK4llvm15SmallPtrSetImplIPKNS_9FenceInstEE5countES3_.exit

_ZNK4llvm15SmallPtrSetImplIPKNS_9FenceInstEE5countES3_.exit: ; preds = %.lr.ph.i.i, %._crit_edge.i.i, %._ZNK4llvm19SmallPtrSetImplBase8find_impEPKv.exit_crit_edge.i, %29
  %36 = phi i32 [ %19, %._crit_edge.i.i ], [ %32, %29 ], [ %.pre5.i, %._ZNK4llvm19SmallPtrSetImplBase8find_impEPKv.exit_crit_edge.i ], [ %19, %.lr.ph.i.i ]
  %37 = phi ptr [ %14, %._crit_edge.i.i ], [ %.pre4.i, %29 ], [ %.pre4.i, %._ZNK4llvm19SmallPtrSetImplBase8find_impEPKv.exit_crit_edge.i ], [ %14, %.lr.ph.i.i ]
  %38 = phi ptr [ %14, %._crit_edge.i.i ], [ %.pre.i, %29 ], [ %.pre.i, %._ZNK4llvm19SmallPtrSetImplBase8find_impEPKv.exit_crit_edge.i ], [ %14, %.lr.ph.i.i ]
  %.0.i.i = phi ptr [ %26, %._crit_edge.i.i ], [ %35, %29 ], [ %28, %._ZNK4llvm19SmallPtrSetImplBase8find_impEPKv.exit_crit_edge.i ], [ %.01118.i.i, %.lr.ph.i.i ]
  %39 = icmp eq ptr %38, %37
  %40 = getelementptr inbounds i8, ptr %0, i64 456
  %41 = load i32, ptr %40, align 8
  %.v.v.i.i = select i1 %39, i32 %36, i32 %41
  %.v.i.i = zext i32 %.v.v.i.i to i64
  %42 = getelementptr inbounds ptr, ptr %38, i64 %.v.i.i
  %.not2 = icmp eq ptr %.0.i.i, %42
  br label %43

43:                                               ; preds = %_ZNK4llvm15SmallPtrSetImplIPKNS_9FenceInstEE5countES3_.exit, %2
  %44 = phi i1 [ false, %2 ], [ %.not2, %_ZNK4llvm15SmallPtrSetImplIPKNS_9FenceInstEE5countES3_.exit ]
  ret i1 %44
}